target datalayout = "e-m:e-p270:32:32-p271:32:32-p272:64:64-i64:64-i128:128-f80:128-n8:16:32:64-S128"
target triple = "x86_64-pc-linux-gnu"

%struct._expr = type { i32, %union.anon.34, i32, i32, i32, i32 }
%union.anon.34 = type { %struct.anon.37 }
%struct.anon.37 = type { ptr, i32, ptr }
%struct._object = type { %union.anon.62, ptr }
%union.anon.62 = type { i64 }
%struct.PyVarObject = type { %struct._object, i64 }
%struct.PyTupleObject = type { %struct.PyVarObject, [1 x ptr] }
%struct.asdl_expr_seq = type { i64, ptr, [1 x ptr] }
%struct.anon.60 = type { ptr, i32 }
%struct.anon.54 = type { ptr, ptr }
%struct.anon.63 = type { i32, i32 }

@PyExc_KeyboardInterrupt = external global ptr, align 8

; Function Attrs: alwaysinline nounwind uwtable
define internal i32 @_Py_IsImmortal(ptr noundef %0) #5 {
  %2 = alloca ptr, align 8
  store ptr %0, ptr %2, align 8, !tbaa !31
  %3 = load ptr, ptr %2, align 8, !tbaa !31
  %4 = getelementptr inbounds nuw %struct._object, ptr %3, i32 0, i32 0
  %5 = getelementptr inbounds nuw %struct.anon.63, ptr %4, i32 0, i32 0
  %6 = load i32, ptr %5, align 8, !tbaa !35
  %7 = icmp slt i32 %6, 0
  %8 = zext i1 %7 to i32
  ret i32 %8
}

; Function Attrs: alwaysinline nounwind uwtable
define internal void @Py_INCREF(ptr noundef %0) #5 {
  %2 = alloca ptr, align 8
  %3 = alloca i32, align 4
  %4 = alloca i32, align 4
  store ptr %0, ptr %2, align 8, !tbaa !31
  call void @llvm.lifetime.start.p0(i64 4, ptr %3) #8
  %5 = load ptr, ptr %2, align 8, !tbaa !31
  %6 = getelementptr inbounds nuw %struct._object, ptr %5, i32 0, i32 0
  %7 = getelementptr inbounds nuw %struct.anon.63, ptr %6, i32 0, i32 0
  %8 = load i32, ptr %7, align 8, !tbaa !35
  store i32 %8, ptr %3, align 4, !tbaa !11
  %9 = load i32, ptr %3, align 4, !tbaa !11
  %10 = icmp slt i32 %9, 0
  br i1 %10, label %11, label %12

11:                                               ; preds = %1
  store i32 1, ptr %4, align 4
  br label %18

12:                                               ; preds = %1
  %13 = load i32, ptr %3, align 4, !tbaa !11
  %14 = add i32 %13, 1
  %15 = load ptr, ptr %2, align 8, !tbaa !31
  %16 = getelementptr inbounds nuw %struct._object, ptr %15, i32 0, i32 0
  %17 = getelementptr inbounds nuw %struct.anon.63, ptr %16, i32 0, i32 0
  store i32 %14, ptr %17, align 8, !tbaa !35
  store i32 0, ptr %4, align 4
  br label %18

18:                                               ; preds = %12, %11
  call void @llvm.lifetime.end.p0(i64 4, ptr %3) #8
  %19 = load i32, ptr %4, align 4
  switch i32 %19, label %21 [
    i32 0, label %20
    i32 1, label %20
  ]

20:                                               ; preds = %18, %18
  ret void

21:                                               ; preds = %18
  unreachable
}

; Function Attrs: alwaysinline nounwind uwtable
define internal void @Py_DECREF(ptr noundef %0) #5 {
  %2 = alloca ptr, align 8
  store ptr %0, ptr %2, align 8, !tbaa !31
  %3 = load ptr, ptr %2, align 8, !tbaa !31
  %4 = call i32 @_Py_IsImmortal(ptr noundef %3)
  %5 = icmp ne i32 %4, 0
  br i1 %5, label %6, label %7

6:                                                ; preds = %1
  br label %16

7:                                                ; preds = %1
  %8 = load ptr, ptr %2, align 8, !tbaa !31
  %9 = getelementptr inbounds nuw %struct._object, ptr %8, i32 0, i32 0
  %10 = getelementptr inbounds nuw %struct.anon.63, ptr %9, i32 0, i32 0
  %11 = load i32, ptr %10, align 8, !tbaa !35
  %12 = add i32 %11, -1
  store i32 %12, ptr %10, align 8, !tbaa !35
  %13 = icmp eq i32 %12, 0
  br i1 %13, label %14, label %16

14:                                               ; preds = %7
  %15 = load ptr, ptr %2, align 8, !tbaa !31
  call void @_Py_Dealloc(ptr noundef %15)
  br label %16

16:                                               ; preds = %6, %14, %7
  ret void
}

; Function Attrs: inlinehint nounwind uwtable
define internal void @PyTuple_SET_ITEM(ptr noundef %0, i64 noundef %1, ptr noundef %2) #2 {
  %4 = alloca ptr, align 8
  %5 = alloca i64, align 8
  %6 = alloca ptr, align 8
  %7 = alloca ptr, align 8
  store ptr %0, ptr %4, align 8, !tbaa !31
  store i64 %1, ptr %5, align 8, !tbaa !36
  store ptr %2, ptr %6, align 8, !tbaa !31
  call void @llvm.lifetime.start.p0(i64 8, ptr %7) #8
  %8 = load ptr, ptr %4, align 8, !tbaa !31
  store ptr %8, ptr %7, align 8, !tbaa !32
  %9 = load ptr, ptr %6, align 8, !tbaa !31
  %10 = load ptr, ptr %7, align 8, !tbaa !32
  %11 = getelementptr inbounds nuw %struct.PyTupleObject, ptr %10, i32 0, i32 1
  %12 = load i64, ptr %5, align 8, !tbaa !36
  %13 = getelementptr [1 x ptr], ptr %11, i64 0, i64 %12
  store ptr %9, ptr %13, align 8, !tbaa !31
  call void @llvm.lifetime.end.p0(i64 8, ptr %7) #8
  ret void
}

; Function Attrs: inlinehint nounwind uwtable
define internal ptr @_Py_NewRef(ptr noundef %0) #2 {
  %2 = alloca ptr, align 8
  store ptr %0, ptr %2, align 8, !tbaa !31
  %3 = load ptr, ptr %2, align 8, !tbaa !31
  call void @Py_INCREF(ptr noundef %3)
  %4 = load ptr, ptr %2, align 8, !tbaa !31
  ret ptr %4
}

; Function Attrs: nounwind uwtable
define internal i32 @make_const(ptr noundef %0, ptr noundef %1, ptr noundef %2) #0 {
  %4 = alloca i32, align 4
  %5 = alloca ptr, align 8
  %6 = alloca ptr, align 8
  %7 = alloca ptr, align 8
  store ptr %0, ptr %5, align 8, !tbaa !44
  store ptr %1, ptr %6, align 8, !tbaa !31
  store ptr %2, ptr %7, align 8, !tbaa !9
  %8 = load ptr, ptr %6, align 8, !tbaa !31
  %9 = icmp eq ptr %8, null
  br i1 %9, label %10, label %16

10:                                               ; preds = %3
  %11 = load ptr, ptr @PyExc_KeyboardInterrupt, align 8, !tbaa !31
  %12 = call i32 @PyErr_ExceptionMatches(ptr noundef %11)
  %13 = icmp ne i32 %12, 0
  br i1 %13, label %14, label %15

14:                                               ; preds = %10
  store i32 0, ptr %4, align 4
  br label %33

15:                                               ; preds = %10
  call void @PyErr_Clear()
  store i32 1, ptr %4, align 4
  br label %33

16:                                               ; preds = %3
  %17 = load ptr, ptr %7, align 8, !tbaa !9
  %18 = load ptr, ptr %6, align 8, !tbaa !31
  %19 = call i32 @_PyArena_AddPyObject(ptr noundef %17, ptr noundef %18)
  %20 = icmp slt i32 %19, 0
  br i1 %20, label %21, label %23

21:                                               ; preds = %16
  %22 = load ptr, ptr %6, align 8, !tbaa !31
  call void @Py_DECREF(ptr noundef %22)
  store i32 0, ptr %4, align 4
  br label %33

23:                                               ; preds = %16
  %24 = load ptr, ptr %5, align 8, !tbaa !44
  %25 = getelementptr inbounds nuw %struct._expr, ptr %24, i32 0, i32 0
  store i32 20, ptr %25, align 8, !tbaa !94
  %26 = load ptr, ptr %5, align 8, !tbaa !44
  %27 = getelementptr inbounds nuw %struct._expr, ptr %26, i32 0, i32 1
  %28 = getelementptr inbounds nuw %struct.anon.54, ptr %27, i32 0, i32 1
  store ptr null, ptr %28, align 8, !tbaa !35
  %29 = load ptr, ptr %6, align 8, !tbaa !31
  %30 = load ptr, ptr %5, align 8, !tbaa !44
  %31 = getelementptr inbounds nuw %struct._expr, ptr %30, i32 0, i32 1
  %32 = getelementptr inbounds nuw %struct.anon.54, ptr %31, i32 0, i32 0
  store ptr %29, ptr %32, align 8, !tbaa !35
  store i32 1, ptr %4, align 4
  br label %33

33:                                               ; preds = %23, %21, %15, %14
  %34 = load i32, ptr %4, align 4
  ret i32 %34
}

; Function Attrs: nounwind uwtable
define internal ptr @make_const_tuple(ptr noundef %0) #0 {
  %2 = alloca ptr, align 8
  %3 = alloca ptr, align 8
  %4 = alloca i64, align 8
  %5 = alloca i32, align 4
  %6 = alloca ptr, align 8
  %7 = alloca ptr, align 8
  %8 = alloca i64, align 8
  %9 = alloca ptr, align 8
  %10 = alloca ptr, align 8
  store ptr %0, ptr %3, align 8, !tbaa !32
  call void @llvm.lifetime.start.p0(i64 8, ptr %4) #8
  store i64 0, ptr %4, align 8, !tbaa !36
  br label %11

11:                                               ; preds = %39, %1
  %12 = load i64, ptr %4, align 8, !tbaa !36
  %13 = load ptr, ptr %3, align 8, !tbaa !32
  %14 = icmp eq ptr %13, null
  br i1 %14, label %15, label %16

15:                                               ; preds = %11
  br label %20

16:                                               ; preds = %11
  %17 = load ptr, ptr %3, align 8, !tbaa !32
  %18 = getelementptr inbounds nuw %struct.asdl_expr_seq, ptr %17, i32 0, i32 0
  %19 = load i64, ptr %18, align 8, !tbaa !37
  br label %20

20:                                               ; preds = %16, %15
  %21 = phi i64 [ 0, %15 ], [ %19, %16 ]
  %22 = icmp slt i64 %12, %21
  br i1 %22, label %24, label %23

23:                                               ; preds = %20
  store i32 2, ptr %5, align 4
  br label %42

24:                                               ; preds = %20
  call void @llvm.lifetime.start.p0(i64 8, ptr %6) #8
  %25 = load ptr, ptr %3, align 8, !tbaa !32
  %26 = getelementptr inbounds nuw %struct.asdl_expr_seq, ptr %25, i32 0, i32 2
  %27 = load i64, ptr %4, align 8, !tbaa !36
  %28 = getelementptr [1 x ptr], ptr %26, i64 0, i64 %27
  %29 = load ptr, ptr %28, align 8, !tbaa !44
  store ptr %29, ptr %6, align 8, !tbaa !44
  %30 = load ptr, ptr %6, align 8, !tbaa !44
  %31 = getelementptr inbounds nuw %struct._expr, ptr %30, i32 0, i32 0
  %32 = load i32, ptr %31, align 8, !tbaa !94
  %33 = icmp ne i32 %32, 20
  br i1 %33, label %34, label %35

34:                                               ; preds = %24
  store ptr null, ptr %2, align 8
  store i32 1, ptr %5, align 4
  br label %36

35:                                               ; preds = %24
  store i32 0, ptr %5, align 4
  br label %36

36:                                               ; preds = %35, %34
  call void @llvm.lifetime.end.p0(i64 8, ptr %6) #8
  %37 = load i32, ptr %5, align 4
  switch i32 %37, label %42 [
    i32 0, label %38
  ]

38:                                               ; preds = %36
  br label %39

39:                                               ; preds = %38
  %40 = load i64, ptr %4, align 8, !tbaa !36
  %41 = add i64 %40, 1
  store i64 %41, ptr %4, align 8, !tbaa !36
  br label %11, !llvm.loop !150

42:                                               ; preds = %36, %23
  call void @llvm.lifetime.end.p0(i64 8, ptr %4) #8
  %43 = load i32, ptr %5, align 4
  switch i32 %43, label %94 [
    i32 2, label %44
    i32 1, label %92
  ]

44:                                               ; preds = %42
  call void @llvm.lifetime.start.p0(i64 8, ptr %7) #8
  %45 = load ptr, ptr %3, align 8, !tbaa !32
  %46 = icmp eq ptr %45, null
  br i1 %46, label %47, label %48

47:                                               ; preds = %44
  br label %52

48:                                               ; preds = %44
  %49 = load ptr, ptr %3, align 8, !tbaa !32
  %50 = getelementptr inbounds nuw %struct.asdl_expr_seq, ptr %49, i32 0, i32 0
  %51 = load i64, ptr %50, align 8, !tbaa !37
  br label %52

52:                                               ; preds = %48, %47
  %53 = phi i64 [ 0, %47 ], [ %51, %48 ]
  %54 = call ptr @PyTuple_New(i64 noundef %53)
  store ptr %54, ptr %7, align 8, !tbaa !31
  %55 = load ptr, ptr %7, align 8, !tbaa !31
  %56 = icmp eq ptr %55, null
  br i1 %56, label %57, label %58

57:                                               ; preds = %52
  store ptr null, ptr %2, align 8
  store i32 1, ptr %5, align 4
  br label %91

58:                                               ; preds = %52
  call void @llvm.lifetime.start.p0(i64 8, ptr %8) #8
  store i64 0, ptr %8, align 8, !tbaa !36
  br label %59

59:                                               ; preds = %86, %58
  %60 = load i64, ptr %8, align 8, !tbaa !36
  %61 = load ptr, ptr %3, align 8, !tbaa !32
  %62 = icmp eq ptr %61, null
  br i1 %62, label %63, label %64

63:                                               ; preds = %59
  br label %68

64:                                               ; preds = %59
  %65 = load ptr, ptr %3, align 8, !tbaa !32
  %66 = getelementptr inbounds nuw %struct.asdl_expr_seq, ptr %65, i32 0, i32 0
  %67 = load i64, ptr %66, align 8, !tbaa !37
  br label %68

68:                                               ; preds = %64, %63
  %69 = phi i64 [ 0, %63 ], [ %67, %64 ]
  %70 = icmp slt i64 %60, %69
  br i1 %70, label %72, label %71

71:                                               ; preds = %68
  store i32 5, ptr %5, align 4
  call void @llvm.lifetime.end.p0(i64 8, ptr %8) #8
  br label %89

72:                                               ; preds = %68
  call void @llvm.lifetime.start.p0(i64 8, ptr %9) #8
  %73 = load ptr, ptr %3, align 8, !tbaa !32
  %74 = getelementptr inbounds nuw %struct.asdl_expr_seq, ptr %73, i32 0, i32 2
  %75 = load i64, ptr %8, align 8, !tbaa !36
  %76 = getelementptr [1 x ptr], ptr %74, i64 0, i64 %75
  %77 = load ptr, ptr %76, align 8, !tbaa !44
  store ptr %77, ptr %9, align 8, !tbaa !44
  call void @llvm.lifetime.start.p0(i64 8, ptr %10) #8
  %78 = load ptr, ptr %9, align 8, !tbaa !44
  %79 = getelementptr inbounds nuw %struct._expr, ptr %78, i32 0, i32 1
  %80 = getelementptr inbounds nuw %struct.anon.54, ptr %79, i32 0, i32 0
  %81 = load ptr, ptr %80, align 8, !tbaa !35
  store ptr %81, ptr %10, align 8, !tbaa !31
  %82 = load ptr, ptr %7, align 8, !tbaa !31
  %83 = load i64, ptr %8, align 8, !tbaa !36
  %84 = load ptr, ptr %10, align 8, !tbaa !31
  %85 = call ptr @_Py_NewRef(ptr noundef %84)
  call void @PyTuple_SET_ITEM(ptr noundef %82, i64 noundef %83, ptr noundef %85)
  call void @llvm.lifetime.end.p0(i64 8, ptr %10) #8
  call void @llvm.lifetime.end.p0(i64 8, ptr %9) #8
  br label %86

86:                                               ; preds = %72
  %87 = load i64, ptr %8, align 8, !tbaa !36
  %88 = add i64 %87, 1
  store i64 %88, ptr %8, align 8, !tbaa !36
  br label %59, !llvm.loop !151

89:                                               ; preds = %71
  %90 = load ptr, ptr %7, align 8, !tbaa !31
  store ptr %90, ptr %2, align 8
  store i32 1, ptr %5, align 4
  br label %91

91:                                               ; preds = %89, %57
  call void @llvm.lifetime.end.p0(i64 8, ptr %7) #8
  br label %92

92:                                               ; preds = %91, %42
  %93 = load ptr, ptr %2, align 8
  ret ptr %93

94:                                               ; preds = %42
  unreachable
}

; Function Attrs: nounwind uwtable
define internal i32 @fold_tuple(ptr noundef %0, ptr noundef %1, ptr noundef %2) #0 {
  %4 = alloca i32, align 4
  %5 = alloca ptr, align 8
  %6 = alloca ptr, align 8
  %7 = alloca ptr, align 8
  %8 = alloca ptr, align 8
  %9 = alloca i32, align 4
  store ptr %0, ptr %5, align 8, !tbaa !44
  store ptr %1, ptr %6, align 8, !tbaa !9
  store ptr %2, ptr %7, align 8, !tbaa !32
  call void @llvm.lifetime.start.p0(i64 8, ptr %8) #8
  %10 = load ptr, ptr %5, align 8, !tbaa !44
  %11 = getelementptr inbounds nuw %struct._expr, ptr %10, i32 0, i32 1
  %12 = getelementptr inbounds nuw %struct.anon.60, ptr %11, i32 0, i32 1
  %13 = load i32, ptr %12, align 8, !tbaa !35
  %14 = icmp ne i32 %13, 1
  br i1 %14, label %15, label %16

15:                                               ; preds = %3
  store i32 1, ptr %4, align 4
  store i32 1, ptr %9, align 4
  br label %26

16:                                               ; preds = %3
  %17 = load ptr, ptr %5, align 8, !tbaa !44
  %18 = getelementptr inbounds nuw %struct._expr, ptr %17, i32 0, i32 1
  %19 = getelementptr inbounds nuw %struct.anon.60, ptr %18, i32 0, i32 0
  %20 = load ptr, ptr %19, align 8, !tbaa !35
  %21 = call ptr @make_const_tuple(ptr noundef %20)
  store ptr %21, ptr %8, align 8, !tbaa !31
  %22 = load ptr, ptr %5, align 8, !tbaa !44
  %23 = load ptr, ptr %8, align 8, !tbaa !31
  %24 = load ptr, ptr %6, align 8, !tbaa !9
  %25 = call i32 @make_const(ptr noundef %22, ptr noundef %23, ptr noundef %24)
  store i32 %25, ptr %4, align 4
  store i32 1, ptr %9, align 4
  br label %26

26:                                               ; preds = %16, %15
  call void @llvm.lifetime.end.p0(i64 8, ptr %8) #8
  %27 = load i32, ptr %4, align 4
  ret i32 %27
}