; Function Attrs: nounwind uwtable
define internal fastcc range(i32 0, 2) i32 @fold_tuple(ptr noundef captures(none) %0, ptr noundef %1) unnamed_addr #0 {
  %3 = getelementptr inbounds nuw i8, ptr %0, i64 16
  %4 = load i32, ptr %3, align 8, !tbaa !28
  %.not = icmp eq i32 %4, 1
  br i1 %.not, label %5, label %make_const.exit

5:                                                ; preds = %2
  %6 = getelementptr inbounds nuw i8, ptr %0, i64 8
  %7 = load ptr, ptr %6, align 8, !tbaa !28
  %8 = icmp eq ptr %7, null
  br i1 %8, label %make_const_tuple.exit, label %.thread34.lr.ph.i

.thread34.lr.ph.i:                                ; preds = %5
  %9 = load i64, ptr %7, align 8, !tbaa !29
  %10 = getelementptr inbounds nuw i8, ptr %7, i64 16
  %11 = icmp sgt i64 %9, 0
  br i1 %11, label %.lr.ph.i, label %.loopexit36.thread.i

.thread34.i:                                      ; preds = %.lr.ph.i
  %12 = add nuw nsw i64 %.0234042.i, 1
  %exitcond.not.i = icmp eq i64 %12, %9
  br i1 %exitcond.not.i, label %.loopexit36.i, label %.lr.ph.i

.lr.ph.i:                                         ; preds = %.thread34.lr.ph.i, %.thread34.i
  %.0234042.i = phi i64 [ %12, %.thread34.i ], [ 0, %.thread34.lr.ph.i ]
  %13 = getelementptr [1 x ptr], ptr %10, i64 0, i64 %.0234042.i
  %14 = load ptr, ptr %13, align 8, !tbaa !37
  %15 = load i32, ptr %14, align 8, !tbaa !101
  %.not.i = icmp eq i32 %15, 20
  br i1 %.not.i, label %.thread34.i, label %make_const_tuple.exit.thread

.loopexit36.i:                                    ; preds = %.thread34.i
  %16 = tail call ptr @PyTuple_New(i64 noundef %9) #8
  %17 = icmp eq ptr %16, null
  br i1 %17, label %make_const_tuple.exit.thread, label %.preheader.split.i

.loopexit36.thread.i:                             ; preds = %.thread34.lr.ph.i
  %18 = tail call ptr @PyTuple_New(i64 noundef %9) #8
  %19 = icmp eq ptr %18, null
  br i1 %19, label %make_const_tuple.exit.thread, label %.preheader.split.i

.preheader.split.i:                               ; preds = %.loopexit36.i, %.loopexit36.thread.i
  %20 = phi ptr [ %18, %.loopexit36.thread.i ], [ %16, %.loopexit36.i ]
  %21 = getelementptr inbounds nuw i8, ptr %20, i64 24
  %22 = load i64, ptr %7, align 8, !tbaa !29
  %23 = icmp sgt i64 %22, 0
  br i1 %23, label %.lr.ph44.i, label %make_const_tuple.exit.thread3

.lr.ph44.i:                                       ; preds = %.preheader.split.i, %_Py_NewRef.exit.i
  %24 = phi i64 [ %33, %_Py_NewRef.exit.i ], [ %22, %.preheader.split.i ]
  %.02443.i = phi i64 [ %35, %_Py_NewRef.exit.i ], [ 0, %.preheader.split.i ]
  %25 = getelementptr [1 x ptr], ptr %10, i64 0, i64 %.02443.i
  %26 = load ptr, ptr %25, align 8, !tbaa !37
  %27 = getelementptr inbounds nuw i8, ptr %26, i64 8
  %28 = load ptr, ptr %27, align 8, !tbaa !28
  %29 = load i32, ptr %28, align 8, !tbaa !28
  %30 = icmp slt i32 %29, 0
  br i1 %30, label %_Py_NewRef.exit.i, label %31

31:                                               ; preds = %.lr.ph44.i
  %32 = add nuw i32 %29, 1
  store i32 %32, ptr %28, align 8, !tbaa !28
  %.pre.i = load i64, ptr %7, align 8, !tbaa !29
  br label %_Py_NewRef.exit.i

_Py_NewRef.exit.i:                                ; preds = %31, %.lr.ph44.i
  %33 = phi i64 [ %24, %.lr.ph44.i ], [ %.pre.i, %31 ]
  %34 = getelementptr [1 x ptr], ptr %21, i64 0, i64 %.02443.i
  store ptr %28, ptr %34, align 8, !tbaa !35
  %35 = add nuw nsw i64 %.02443.i, 1
  %36 = icmp slt i64 %35, %33
  br i1 %36, label %.lr.ph44.i, label %make_const_tuple.exit.thread3, !llvm.loop !144

make_const_tuple.exit:                            ; preds = %5
  %37 = tail call ptr @PyTuple_New(i64 noundef 0) #8
  %38 = icmp eq ptr %37, null
  br i1 %38, label %make_const_tuple.exit.thread, label %make_const_tuple.exit.thread3

make_const_tuple.exit.thread:                     ; preds = %.lr.ph.i, %.loopexit36.thread.i, %.loopexit36.i, %make_const_tuple.exit
  %39 = load ptr, ptr @PyExc_KeyboardInterrupt, align 8, !tbaa !35
  %40 = tail call i32 @PyErr_ExceptionMatches(ptr noundef %39) #8
  %.not.i5 = icmp eq i32 %40, 0
  br i1 %.not.i5, label %41, label %make_const.exit

41:                                               ; preds = %make_const_tuple.exit.thread
  tail call void @PyErr_Clear() #8
  br label %make_const.exit

make_const_tuple.exit.thread3:                    ; preds = %_Py_NewRef.exit.i, %.preheader.split.i, %make_const_tuple.exit
  %.3.i5 = phi ptr [ %37, %make_const_tuple.exit ], [ %20, %.preheader.split.i ], [ %20, %_Py_NewRef.exit.i ]
  %42 = tail call i32 @_PyArena_AddPyObject(ptr noundef %1, ptr noundef nonnull %.3.i5) #8
  %43 = icmp slt i32 %42, 0
  br i1 %43, label %44, label %50

44:                                               ; preds = %make_const_tuple.exit.thread3
  %45 = load i32, ptr %.3.i5, align 8, !tbaa !28
  %.not.i.i = icmp sgt i32 %45, -1
  br i1 %.not.i.i, label %46, label %make_const.exit

46:                                               ; preds = %44
  %47 = add nsw i32 %45, -1
  store i32 %47, ptr %.3.i5, align 8, !tbaa !28
  %48 = icmp eq i32 %47, 0
  br i1 %48, label %49, label %make_const.exit

49:                                               ; preds = %46
  tail call void @_Py_Dealloc(ptr noundef nonnull %.3.i5) #8
  br label %make_const.exit

50:                                               ; preds = %make_const_tuple.exit.thread3
  store i32 20, ptr %0, align 8, !tbaa !101
  store ptr null, ptr %3, align 8, !tbaa !28
  store ptr %.3.i5, ptr %6, align 8, !tbaa !28
  br label %make_const.exit

make_const.exit:                                  ; preds = %50, %49, %46, %44, %41, %make_const_tuple.exit.thread, %2
  %.0 = phi i32 [ 1, %2 ], [ 1, %41 ], [ 1, %50 ], [ 0, %make_const_tuple.exit.thread ], [ 0, %44 ], [ 0, %46 ], [ 0, %49 ]
  ret i32 %.0
}